target datalayout = "e-m:e-p270:32:32-p271:32:32-p272:64:64-i64:64-i128:128-f80:128-n8:16:32:64-S128"
target triple = "x86_64-pc-linux-gnu"

@.str = private unnamed_addr constant [135 x i8] c"generated/home/dtcxzyw/WorkSpace/Projects/compilers/llvm-opt-benchmark/bench/gromacs/gromacs/src/external/tng_io/src/compression/bwt.c\00", align 1

; Function Attrs: nounwind uwtable
define void @Ptngc_comp_from_bwt(ptr noundef %0, i32 noundef %1, i32 noundef %2, ptr noundef %3) #0 {
  %5 = alloca ptr, align 8
  %6 = alloca i32, align 4
  %7 = alloca i32, align 4
  %8 = alloca ptr, align 8
  %9 = alloca i32, align 4
  %10 = alloca ptr, align 8
  %11 = alloca ptr, align 8
  %12 = alloca i32, align 4
  store ptr %0, ptr %5, align 8
  store i32 %1, ptr %6, align 4
  store i32 %2, ptr %7, align 4
  store ptr %3, ptr %8, align 8
  %13 = call ptr @Ptngc_warnmalloc_x(i64 noundef 262144, ptr noundef @.str, i32 noundef 359)
  store ptr %13, ptr %10, align 8
  %14 = load i32, ptr %6, align 4
  %15 = sext i32 %14 to i64
  %16 = mul i64 %15, 4
  %17 = call ptr @Ptngc_warnmalloc_x(i64 noundef %16, ptr noundef @.str, i32 noundef 360)
  store ptr %17, ptr %11, align 8
  store i32 0, ptr %12, align 4
  %18 = load ptr, ptr %10, align 8
  call void @llvm.memset.p0.i64(ptr align 4 %18, i8 0, i64 262144, i1 false)
  store i32 0, ptr %9, align 4
  br label %19

19:                                               ; preds = %47, %4
  %20 = load i32, ptr %9, align 4
  %21 = load i32, ptr %6, align 4
  %22 = icmp slt i32 %20, %21
  br i1 %22, label %23, label %50

23:                                               ; preds = %19
  %24 = load ptr, ptr %10, align 8
  %25 = load ptr, ptr %5, align 8
  %26 = load i32, ptr %9, align 4
  %27 = sext i32 %26 to i64
  %28 = getelementptr inbounds i32, ptr %25, i64 %27
  %29 = load i32, ptr %28, align 4
  %30 = zext i32 %29 to i64
  %31 = getelementptr inbounds i32, ptr %24, i64 %30
  %32 = load i32, ptr %31, align 4
  %33 = load ptr, ptr %11, align 8
  %34 = load i32, ptr %9, align 4
  %35 = sext i32 %34 to i64
  %36 = getelementptr inbounds i32, ptr %33, i64 %35
  store i32 %32, ptr %36, align 4
  %37 = load ptr, ptr %10, align 8
  %38 = load ptr, ptr %5, align 8
  %39 = load i32, ptr %9, align 4
  %40 = sext i32 %39 to i64
  %41 = getelementptr inbounds i32, ptr %38, i64 %40
  %42 = load i32, ptr %41, align 4
  %43 = zext i32 %42 to i64
  %44 = getelementptr inbounds i32, ptr %37, i64 %43
  %45 = load i32, ptr %44, align 4
  %46 = add i32 %45, 1
  store i32 %46, ptr %44, align 4
  br label %47

47:                                               ; preds = %23
  %48 = load i32, ptr %9, align 4
  %49 = add nsw i32 %48, 1
  store i32 %49, ptr %9, align 4
  br label %19, !llvm.loop !16

50:                                               ; preds = %19
  store i32 0, ptr %9, align 4
  br label %51

51:                                               ; preds = %73, %50
  %52 = load i32, ptr %9, align 4
  %53 = icmp slt i32 %52, 65536
  br i1 %53, label %54, label %76

54:                                               ; preds = %51
  %55 = load ptr, ptr %10, align 8
  %56 = load i32, ptr %9, align 4
  %57 = sext i32 %56 to i64
  %58 = getelementptr inbounds i32, ptr %55, i64 %57
  %59 = load i32, ptr %58, align 4
  %60 = load i32, ptr %12, align 4
  %61 = add i32 %60, %59
  store i32 %61, ptr %12, align 4
  %62 = load i32, ptr %12, align 4
  %63 = load ptr, ptr %10, align 8
  %64 = load i32, ptr %9, align 4
  %65 = sext i32 %64 to i64
  %66 = getelementptr inbounds i32, ptr %63, i64 %65
  %67 = load i32, ptr %66, align 4
  %68 = sub i32 %62, %67
  %69 = load ptr, ptr %10, align 8
  %70 = load i32, ptr %9, align 4
  %71 = sext i32 %70 to i64
  %72 = getelementptr inbounds i32, ptr %69, i64 %71
  store i32 %68, ptr %72, align 4
  br label %73

73:                                               ; preds = %54
  %74 = load i32, ptr %9, align 4
  %75 = add nsw i32 %74, 1
  store i32 %75, ptr %9, align 4
  br label %51, !llvm.loop !17

76:                                               ; preds = %51
  %77 = load i32, ptr %6, align 4
  %78 = sub nsw i32 %77, 1
  store i32 %78, ptr %9, align 4
  br label %79

79:                                               ; preds = %107, %76
  %80 = load i32, ptr %9, align 4
  %81 = icmp sge i32 %80, 0
  br i1 %81, label %82, label %110

82:                                               ; preds = %79
  %83 = load ptr, ptr %5, align 8
  %84 = load i32, ptr %7, align 4
  %85 = sext i32 %84 to i64
  %86 = getelementptr inbounds i32, ptr %83, i64 %85
  %87 = load i32, ptr %86, align 4
  %88 = load ptr, ptr %8, align 8
  %89 = load i32, ptr %9, align 4
  %90 = sext i32 %89 to i64
  %91 = getelementptr inbounds i32, ptr %88, i64 %90
  store i32 %87, ptr %91, align 4
  %92 = load ptr, ptr %11, align 8
  %93 = load i32, ptr %7, align 4
  %94 = sext i32 %93 to i64
  %95 = getelementptr inbounds i32, ptr %92, i64 %94
  %96 = load i32, ptr %95, align 4
  %97 = load ptr, ptr %10, align 8
  %98 = load ptr, ptr %5, align 8
  %99 = load i32, ptr %7, align 4
  %100 = sext i32 %99 to i64
  %101 = getelementptr inbounds i32, ptr %98, i64 %100
  %102 = load i32, ptr %101, align 4
  %103 = zext i32 %102 to i64
  %104 = getelementptr inbounds i32, ptr %97, i64 %103
  %105 = load i32, ptr %104, align 4
  %106 = add i32 %96, %105
  store i32 %106, ptr %7, align 4
  br label %107

107:                                              ; preds = %82
  %108 = load i32, ptr %9, align 4
  %109 = add nsw i32 %108, -1
  store i32 %109, ptr %9, align 4
  br label %79, !llvm.loop !18

110:                                              ; preds = %79
  %111 = load ptr, ptr %11, align 8
  call void @free(ptr noundef %111) #6
  %112 = load ptr, ptr %10, align 8
  call void @free(ptr noundef %112) #6
  ret void
}