; Function Attrs: nounwind uwtable
define void @Ptngc_comp_from_bwt(ptr nocapture noundef readonly %0, i32 noundef %1, i32 noundef %2, ptr nocapture noundef writeonly %3) local_unnamed_addr #2 {
  %5 = tail call ptr @Ptngc_warnmalloc_x(i64 noundef 262144, ptr noundef nonnull @.str, i32 noundef 359) #10
  %6 = sext i32 %1 to i64
  %7 = shl nsw i64 %6, 2
  %8 = tail call ptr @Ptngc_warnmalloc_x(i64 noundef %7, ptr noundef nonnull @.str, i32 noundef 360) #10
  tail call void @llvm.memset.p0.i64(ptr noundef nonnull align 4 dereferenceable(262144) %5, i8 0, i64 262144, i1 false)
  %9 = icmp sgt i32 %1, 0
  br i1 %9, label %.lr.ph.preheader, label %.preheader39.preheader

.preheader39.preheader:                           ; preds = %.lr.ph, %4
  br label %.preheader39

.lr.ph.preheader:                                 ; preds = %4
  %wide.trip.count = zext nneg i32 %1 to i64
  br label %.lr.ph

.lr.ph:                                           ; preds = %.lr.ph.preheader, %.lr.ph
  %indvars.iv = phi i64 [ 0, %.lr.ph.preheader ], [ %indvars.iv.next, %.lr.ph ]
  %10 = getelementptr inbounds i32, ptr %0, i64 %indvars.iv
  %11 = load i32, ptr %10, align 4
  %12 = zext i32 %11 to i64
  %13 = getelementptr inbounds i32, ptr %5, i64 %12
  %14 = load i32, ptr %13, align 4
  %15 = getelementptr inbounds i32, ptr %8, i64 %indvars.iv
  store i32 %14, ptr %15, align 4
  %16 = load i32, ptr %10, align 4
  %17 = zext i32 %16 to i64
  %18 = getelementptr inbounds i32, ptr %5, i64 %17
  %19 = load i32, ptr %18, align 4
  %20 = add i32 %19, 1
  store i32 %20, ptr %18, align 4
  %indvars.iv.next = add nuw nsw i64 %indvars.iv, 1
  %exitcond.not = icmp eq i64 %indvars.iv.next, %wide.trip.count
  br i1 %exitcond.not, label %.preheader39.preheader, label %.lr.ph, !llvm.loop !16

.preheader:                                       ; preds = %.preheader39
  br i1 %9, label %.lr.ph45.preheader, label %._crit_edge

.lr.ph45.preheader:                               ; preds = %.preheader
  %21 = zext nneg i32 %1 to i64
  br label %.lr.ph45

.preheader39:                                     ; preds = %.preheader39.preheader, %.preheader39
  %indvars.iv47 = phi i64 [ %indvars.iv.next48, %.preheader39 ], [ 0, %.preheader39.preheader ]
  %.042 = phi i32 [ %24, %.preheader39 ], [ 0, %.preheader39.preheader ]
  %22 = getelementptr inbounds i32, ptr %5, i64 %indvars.iv47
  %23 = load i32, ptr %22, align 4
  %24 = add i32 %23, %.042
  store i32 %.042, ptr %22, align 4
  %indvars.iv.next48 = add nuw nsw i64 %indvars.iv47, 1
  %exitcond50.not = icmp eq i64 %indvars.iv.next48, 65536
  br i1 %exitcond50.not, label %.preheader, label %.preheader39, !llvm.loop !17

.lr.ph45:                                         ; preds = %.lr.ph45.preheader, %.lr.ph45
  %indvars.iv51 = phi i64 [ %21, %.lr.ph45.preheader ], [ %indvars.iv.next52, %.lr.ph45 ]
  %.03644 = phi i32 [ %2, %.lr.ph45.preheader ], [ %34, %.lr.ph45 ]
  %indvars.iv.next52 = add nsw i64 %indvars.iv51, -1
  %25 = sext i32 %.03644 to i64
  %26 = getelementptr inbounds i32, ptr %0, i64 %25
  %27 = load i32, ptr %26, align 4
  %28 = getelementptr inbounds i32, ptr %3, i64 %indvars.iv.next52
  store i32 %27, ptr %28, align 4
  %29 = getelementptr inbounds i32, ptr %8, i64 %25
  %30 = load i32, ptr %29, align 4
  %31 = zext i32 %27 to i64
  %32 = getelementptr inbounds i32, ptr %5, i64 %31
  %33 = load i32, ptr %32, align 4
  %34 = add i32 %33, %30
  %35 = icmp ugt i64 %indvars.iv51, 1
  br i1 %35, label %.lr.ph45, label %._crit_edge, !llvm.loop !18

._crit_edge:                                      ; preds = %.lr.ph45, %.preheader
  tail call void @free(ptr noundef %8) #10
  tail call void @free(ptr noundef nonnull %5) #10
  ret void
}